target datalayout = "e-m:e-p270:32:32-p271:32:32-p272:64:64-i64:64-i128:128-f80:128-n8:16:32:64-S128"
target triple = "x86_64-pc-linux-gnu"

%struct.Vec_Ptr_t_ = type { i32, i32, ptr }
%struct.Aig_Obj_t_ = type { %union.anon.0, ptr, ptr, i64, i32, i32, %union.anon.1 }
%union.anon.0 = type { ptr }
%union.anon.1 = type { ptr }
%struct.Aig_Man_t_ = type { ptr, ptr, ptr, ptr, ptr, ptr, ptr, %struct.Aig_Obj_t_, i32, i32, i32, i32, i32, i32, [7 x i32], i32, ptr, i32, ptr, i32, ptr, i32, i32, i32, ptr, i32, i32, i32, i32, i32, ptr, ptr, i32, ptr, ptr, i32, ptr, ptr, i32, i32, i32, ptr, ptr, ptr, ptr, ptr, ptr, ptr, ptr, ptr, ptr, ptr, ptr, ptr, ptr, i32, ptr, ptr, ptr, ptr, i32, i64, i64, i64, ptr, ptr }

; Function Attrs: inlinehint nounwind uwtable
define internal ptr @Vec_PtrAlloc(i32 noundef %0) #1 {
  %2 = alloca i32, align 4
  %3 = alloca ptr, align 8
  store i32 %0, ptr %2, align 4, !tbaa !50
  call void @llvm.lifetime.start.p0(i64 8, ptr %3) #8
  %4 = call noalias ptr @malloc(i64 noundef 16) #9
  store ptr %4, ptr %3, align 8, !tbaa !62
  %5 = load i32, ptr %2, align 4, !tbaa !50
  %6 = icmp sgt i32 %5, 0
  br i1 %6, label %7, label %11

7:                                                ; preds = %1
  %8 = load i32, ptr %2, align 4, !tbaa !50
  %9 = icmp slt i32 %8, 8
  br i1 %9, label %10, label %11

10:                                               ; preds = %7
  store i32 8, ptr %2, align 4, !tbaa !50
  br label %11

11:                                               ; preds = %10, %7, %1
  %12 = load ptr, ptr %3, align 8, !tbaa !62
  %13 = getelementptr inbounds nuw %struct.Vec_Ptr_t_, ptr %12, i32 0, i32 1
  store i32 0, ptr %13, align 4, !tbaa !71
  %14 = load i32, ptr %2, align 4, !tbaa !50
  %15 = load ptr, ptr %3, align 8, !tbaa !62
  %16 = getelementptr inbounds nuw %struct.Vec_Ptr_t_, ptr %15, i32 0, i32 0
  store i32 %14, ptr %16, align 8, !tbaa !73
  %17 = load ptr, ptr %3, align 8, !tbaa !62
  %18 = getelementptr inbounds nuw %struct.Vec_Ptr_t_, ptr %17, i32 0, i32 0
  %19 = load i32, ptr %18, align 8, !tbaa !73
  %20 = icmp ne i32 %19, 0
  br i1 %20, label %21, label %28

21:                                               ; preds = %11
  %22 = load ptr, ptr %3, align 8, !tbaa !62
  %23 = getelementptr inbounds nuw %struct.Vec_Ptr_t_, ptr %22, i32 0, i32 0
  %24 = load i32, ptr %23, align 8, !tbaa !73
  %25 = sext i32 %24 to i64
  %26 = mul i64 8, %25
  %27 = call noalias ptr @malloc(i64 noundef %26) #9
  br label %29

28:                                               ; preds = %11
  br label %29

29:                                               ; preds = %28, %21
  %30 = phi ptr [ %27, %21 ], [ null, %28 ]
  %31 = load ptr, ptr %3, align 8, !tbaa !62
  %32 = getelementptr inbounds nuw %struct.Vec_Ptr_t_, ptr %31, i32 0, i32 2
  store ptr %30, ptr %32, align 8, !tbaa !74
  %33 = load ptr, ptr %3, align 8, !tbaa !62
  call void @llvm.lifetime.end.p0(i64 8, ptr %3) #8
  ret ptr %33
}

; Function Attrs: inlinehint nounwind uwtable
define internal void @Aig_ObjSetTravIdCurrent(ptr noundef %0, ptr noundef %1) #1 {
  %3 = alloca ptr, align 8
  %4 = alloca ptr, align 8
  store ptr %0, ptr %3, align 8, !tbaa !89
  store ptr %1, ptr %4, align 8, !tbaa !91
  %5 = load ptr, ptr %3, align 8, !tbaa !89
  %6 = getelementptr inbounds nuw %struct.Aig_Man_t_, ptr %5, i32 0, i32 38
  %7 = load i32, ptr %6, align 8, !tbaa !95
  %8 = load ptr, ptr %4, align 8, !tbaa !91
  %9 = getelementptr inbounds nuw %struct.Aig_Obj_t_, ptr %8, i32 0, i32 4
  store i32 %7, ptr %9, align 8, !tbaa !93
  ret void
}

; Function Attrs: inlinehint nounwind uwtable
define internal ptr @Vec_PtrEntry(ptr noundef %0, i32 noundef %1) #1 {
  %3 = alloca ptr, align 8
  %4 = alloca i32, align 4
  store ptr %0, ptr %3, align 8, !tbaa !62
  store i32 %1, ptr %4, align 4, !tbaa !50
  %5 = load ptr, ptr %3, align 8, !tbaa !62
  %6 = getelementptr inbounds nuw %struct.Vec_Ptr_t_, ptr %5, i32 0, i32 2
  %7 = load ptr, ptr %6, align 8, !tbaa !74
  %8 = load i32, ptr %4, align 4, !tbaa !50
  %9 = sext i32 %8 to i64
  %10 = getelementptr inbounds ptr, ptr %7, i64 %9
  %11 = load ptr, ptr %10, align 8, !tbaa !77
  ret ptr %11
}

; Function Attrs: inlinehint nounwind uwtable
define internal i32 @Vec_PtrSize(ptr noundef %0) #1 {
  %2 = alloca ptr, align 8
  store ptr %0, ptr %2, align 8, !tbaa !62
  %3 = load ptr, ptr %2, align 8, !tbaa !62
  %4 = getelementptr inbounds nuw %struct.Vec_Ptr_t_, ptr %3, i32 0, i32 1
  %5 = load i32, ptr %4, align 4, !tbaa !71
  ret i32 %5
}

; Function Attrs: nounwind uwtable
define ptr @Llb_Nonlin4CutNodes(ptr noundef %0, ptr noundef %1, ptr noundef %2) #0 {
  %4 = alloca ptr, align 8
  %5 = alloca ptr, align 8
  %6 = alloca ptr, align 8
  %7 = alloca ptr, align 8
  %8 = alloca ptr, align 8
  %9 = alloca i32, align 4
  store ptr %0, ptr %4, align 8, !tbaa !89
  store ptr %1, ptr %5, align 8, !tbaa !62
  store ptr %2, ptr %6, align 8, !tbaa !62
  call void @llvm.lifetime.start.p0(i64 8, ptr %7) #8
  call void @llvm.lifetime.start.p0(i64 8, ptr %8) #8
  call void @llvm.lifetime.start.p0(i64 4, ptr %9) #8
  %10 = load ptr, ptr %4, align 8, !tbaa !89
  call void @Aig_ManIncrementTravId(ptr noundef %10)
  store i32 0, ptr %9, align 4, !tbaa !50
  br label %11

11:                                               ; preds = %25, %3
  %12 = load i32, ptr %9, align 4, !tbaa !50
  %13 = load ptr, ptr %5, align 8, !tbaa !62
  %14 = call i32 @Vec_PtrSize(ptr noundef %13)
  %15 = icmp slt i32 %12, %14
  br i1 %15, label %16, label %20

16:                                               ; preds = %11
  %17 = load ptr, ptr %5, align 8, !tbaa !62
  %18 = load i32, ptr %9, align 4, !tbaa !50
  %19 = call ptr @Vec_PtrEntry(ptr noundef %17, i32 noundef %18)
  store ptr %19, ptr %8, align 8, !tbaa !91
  br label %20

20:                                               ; preds = %16, %11
  %21 = phi i1 [ false, %11 ], [ true, %16 ]
  br i1 %21, label %22, label %28

22:                                               ; preds = %20
  %23 = load ptr, ptr %4, align 8, !tbaa !89
  %24 = load ptr, ptr %8, align 8, !tbaa !91
  call void @Aig_ObjSetTravIdCurrent(ptr noundef %23, ptr noundef %24)
  br label %25

25:                                               ; preds = %22
  %26 = load i32, ptr %9, align 4, !tbaa !50
  %27 = add nsw i32 %26, 1
  store i32 %27, ptr %9, align 4, !tbaa !50
  br label %11, !llvm.loop !103

28:                                               ; preds = %20
  %29 = call ptr @Vec_PtrAlloc(i32 noundef 100)
  store ptr %29, ptr %7, align 8, !tbaa !62
  store i32 0, ptr %9, align 4, !tbaa !50
  br label %30

30:                                               ; preds = %45, %28
  %31 = load i32, ptr %9, align 4, !tbaa !50
  %32 = load ptr, ptr %6, align 8, !tbaa !62
  %33 = call i32 @Vec_PtrSize(ptr noundef %32)
  %34 = icmp slt i32 %31, %33
  br i1 %34, label %35, label %39

35:                                               ; preds = %30
  %36 = load ptr, ptr %6, align 8, !tbaa !62
  %37 = load i32, ptr %9, align 4, !tbaa !50
  %38 = call ptr @Vec_PtrEntry(ptr noundef %36, i32 noundef %37)
  store ptr %38, ptr %8, align 8, !tbaa !91
  br label %39

39:                                               ; preds = %35, %30
  %40 = phi i1 [ false, %30 ], [ true, %35 ]
  br i1 %40, label %41, label %48

41:                                               ; preds = %39
  %42 = load ptr, ptr %4, align 8, !tbaa !89
  %43 = load ptr, ptr %8, align 8, !tbaa !91
  %44 = load ptr, ptr %7, align 8, !tbaa !62
  call void @Llb_Nonlin4CutNodes_rec(ptr noundef %42, ptr noundef %43, ptr noundef %44)
  br label %45

45:                                               ; preds = %41
  %46 = load i32, ptr %9, align 4, !tbaa !50
  %47 = add nsw i32 %46, 1
  store i32 %47, ptr %9, align 4, !tbaa !50
  br label %30, !llvm.loop !104

48:                                               ; preds = %39
  %49 = load ptr, ptr %7, align 8, !tbaa !62
  call void @llvm.lifetime.end.p0(i64 4, ptr %9) #8
  call void @llvm.lifetime.end.p0(i64 8, ptr %8) #8
  call void @llvm.lifetime.end.p0(i64 8, ptr %7) #8
  ret ptr %49
}