; Function Attrs: nounwind uwtable
define noundef ptr @Llb_Nonlin4CutNodes(ptr noundef %0, ptr noundef readonly captures(none) %1, ptr noundef readonly captures(none) %2) local_unnamed_addr #2 {
  tail call void @Aig_ManIncrementTravId(ptr noundef %0) #14
  %4 = getelementptr i8, ptr %1, i64 4
  %.val18 = load i32, ptr %4, align 4, !tbaa !67
  %5 = icmp sgt i32 %.val18, 0
  br i1 %5, label %.lr.ph, label %.critedge

.lr.ph:                                           ; preds = %3
  %6 = getelementptr i8, ptr %1, i64 8
  %.val20 = load ptr, ptr %6, align 8, !tbaa !62
  %7 = getelementptr i8, ptr %0, i64 312
  %.val21 = load i32, ptr %7, align 8, !tbaa !80
  %wide.trip.count = zext nneg i32 %.val18 to i64
  br label %8

8:                                                ; preds = %.lr.ph, %8
  %indvars.iv = phi i64 [ 0, %.lr.ph ], [ %indvars.iv.next, %8 ]
  %9 = getelementptr inbounds nuw ptr, ptr %.val20, i64 %indvars.iv
  %10 = load ptr, ptr %9, align 8, !tbaa !65
  %11 = getelementptr inbounds nuw i8, ptr %10, i64 32
  store i32 %.val21, ptr %11, align 8, !tbaa !90
  %indvars.iv.next = add nuw nsw i64 %indvars.iv, 1
  %exitcond.not = icmp eq i64 %indvars.iv.next, %wide.trip.count
  br i1 %exitcond.not, label %.critedge, label %8, !llvm.loop !95

.critedge:                                        ; preds = %8, %3
  %12 = tail call noalias dereferenceable_or_null(16) ptr @malloc(i64 noundef 16) #16
  %13 = getelementptr inbounds nuw i8, ptr %12, i64 4
  store i32 0, ptr %13, align 4, !tbaa !67
  store i32 100, ptr %12, align 8, !tbaa !66
  %14 = tail call noalias dereferenceable_or_null(800) ptr @malloc(i64 noundef 800) #16
  %15 = getelementptr inbounds nuw i8, ptr %12, i64 8
  store ptr %14, ptr %15, align 8, !tbaa !62
  %16 = getelementptr i8, ptr %2, i64 4
  %.val23 = load i32, ptr %16, align 4, !tbaa !67
  %17 = icmp sgt i32 %.val23, 0
  br i1 %17, label %.lr.ph25, label %.critedge2

.lr.ph25:                                         ; preds = %.critedge
  %18 = getelementptr i8, ptr %2, i64 8
  br label %19

19:                                               ; preds = %.lr.ph25, %19
  %indvars.iv27 = phi i64 [ 0, %.lr.ph25 ], [ %indvars.iv.next28, %19 ]
  %.val19 = load ptr, ptr %18, align 8, !tbaa !62
  %20 = getelementptr inbounds nuw ptr, ptr %.val19, i64 %indvars.iv27
  %21 = load ptr, ptr %20, align 8, !tbaa !65
  tail call void @Llb_Nonlin4CutNodes_rec(ptr noundef %0, ptr noundef %21, ptr noundef nonnull %12)
  %indvars.iv.next28 = add nuw nsw i64 %indvars.iv27, 1
  %.val = load i32, ptr %16, align 4, !tbaa !67
  %22 = sext i32 %.val to i64
  %23 = icmp slt i64 %indvars.iv.next28, %22
  br i1 %23, label %19, label %.critedge2, !llvm.loop !96

.critedge2:                                       ; preds = %19, %.critedge
  ret ptr %12
}